target datalayout = "e-m:e-p270:32:32-p271:32:32-p272:64:64-i64:64-i128:128-f80:128-n8:16:32:64-S128"
target triple = "x86_64-pc-linux-gnu"

; Function Attrs: nounwind uwtable
define void @agclean(ptr noundef %0, i32 noundef %1, ptr noundef %2) #0 {
  %4 = alloca ptr, align 8
  %5 = alloca i32, align 4
  %6 = alloca ptr, align 8
  %7 = alloca ptr, align 8
  %8 = alloca ptr, align 8
  store ptr %0, ptr %4, align 8, !tbaa !30
  store i32 %1, ptr %5, align 4, !tbaa !9
  store ptr %2, ptr %6, align 8, !tbaa !7
  call void @llvm.lifetime.start.p0(i64 8, ptr %7) #10
  call void @llvm.lifetime.start.p0(i64 8, ptr %8) #10
  %9 = load i32, ptr %5, align 4, !tbaa !9
  switch i32 %9, label %50 [
    i32 0, label %10
    i32 1, label %15
    i32 2, label %15
    i32 3, label %15
  ]

10:                                               ; preds = %3
  %11 = load ptr, ptr %4, align 8, !tbaa !30
  %12 = load ptr, ptr %4, align 8, !tbaa !30
  %13 = load ptr, ptr %6, align 8, !tbaa !7
  %14 = call i32 @agapply(ptr noundef %11, ptr noundef %12, ptr noundef @simple_delrec, ptr noundef %13, i32 noundef 1)
  br label %51

15:                                               ; preds = %3, %3, %3
  %16 = load ptr, ptr %4, align 8, !tbaa !30
  %17 = call ptr @agfstnode(ptr noundef %16)
  store ptr %17, ptr %7, align 8, !tbaa !37
  br label %18

18:                                               ; preds = %45, %15
  %19 = load ptr, ptr %7, align 8, !tbaa !37
  %20 = icmp ne ptr %19, null
  br i1 %20, label %21, label %49

21:                                               ; preds = %18
  %22 = load i32, ptr %5, align 4, !tbaa !9
  %23 = icmp eq i32 %22, 1
  br i1 %23, label %24, label %28

24:                                               ; preds = %21
  %25 = load ptr, ptr %7, align 8, !tbaa !37
  %26 = load ptr, ptr %6, align 8, !tbaa !7
  %27 = call i32 @agdelrec(ptr noundef %25, ptr noundef %26)
  br label %44

28:                                               ; preds = %21
  %29 = load ptr, ptr %4, align 8, !tbaa !30
  %30 = load ptr, ptr %7, align 8, !tbaa !37
  %31 = call ptr @agfstout(ptr noundef %29, ptr noundef %30)
  store ptr %31, ptr %8, align 8, !tbaa !28
  br label %32

32:                                               ; preds = %39, %28
  %33 = load ptr, ptr %8, align 8, !tbaa !28
  %34 = icmp ne ptr %33, null
  br i1 %34, label %35, label %43

35:                                               ; preds = %32
  %36 = load ptr, ptr %8, align 8, !tbaa !28
  %37 = load ptr, ptr %6, align 8, !tbaa !7
  %38 = call i32 @agdelrec(ptr noundef %36, ptr noundef %37)
  br label %39

39:                                               ; preds = %35
  %40 = load ptr, ptr %4, align 8, !tbaa !30
  %41 = load ptr, ptr %8, align 8, !tbaa !28
  %42 = call ptr @agnxtout(ptr noundef %40, ptr noundef %41)
  store ptr %42, ptr %8, align 8, !tbaa !28
  br label %32, !llvm.loop !41

43:                                               ; preds = %32
  br label %44

44:                                               ; preds = %43, %24
  br label %45

45:                                               ; preds = %44
  %46 = load ptr, ptr %4, align 8, !tbaa !30
  %47 = load ptr, ptr %7, align 8, !tbaa !37
  %48 = call ptr @agnxtnode(ptr noundef %46, ptr noundef %47)
  store ptr %48, ptr %7, align 8, !tbaa !37
  br label %18, !llvm.loop !42

49:                                               ; preds = %18
  br label %51

50:                                               ; preds = %3
  br label %51

51:                                               ; preds = %50, %49, %10
  call void @llvm.lifetime.end.p0(i64 8, ptr %8) #10
  call void @llvm.lifetime.end.p0(i64 8, ptr %7) #10
  ret void
}