; Function Attrs: nounwind uwtable
define void @agclean(ptr noundef %0, i32 noundef %1, ptr noundef %2) local_unnamed_addr #0 {
  switch i32 %1, label %.loopexit19 [
    i32 0, label %4
    i32 1, label %6
    i32 2, label %6
    i32 3, label %6
  ]

4:                                                ; preds = %3
  %5 = tail call i32 @agapply(ptr noundef %0, ptr noundef %0, ptr noundef nonnull @simple_delrec, ptr noundef %2, i32 noundef 1) #11
  br label %.loopexit19

6:                                                ; preds = %3, %3, %3
  %7 = tail call ptr @agfstnode(ptr noundef %0) #11
  %.not24 = icmp eq ptr %7, null
  br i1 %.not24, label %.loopexit19, label %.lr.ph26

.lr.ph26:                                         ; preds = %6
  %8 = icmp eq i32 %1, 1
  br i1 %8, label %.lr.ph26.split.us, label %.lr.ph26.split

.lr.ph26.split.us:                                ; preds = %.lr.ph26, %.lr.ph26.split.us
  %.01725.us = phi ptr [ %10, %.lr.ph26.split.us ], [ %7, %.lr.ph26 ]
  %9 = tail call i32 @agdelrec(ptr noundef nonnull %.01725.us, ptr noundef %2)
  %10 = tail call ptr @agnxtnode(ptr noundef %0, ptr noundef nonnull %.01725.us) #11
  %.not.us = icmp eq ptr %10, null
  br i1 %.not.us, label %.loopexit19, label %.lr.ph26.split.us, !llvm.loop !24

.lr.ph26.split:                                   ; preds = %.lr.ph26, %.loopexit
  %.01725 = phi ptr [ %56, %.loopexit ], [ %7, %.lr.ph26 ]
  %11 = tail call ptr @agfstout(ptr noundef %0, ptr noundef nonnull %.01725) #11
  %.not1821 = icmp eq ptr %11, null
  br i1 %.not1821, label %.loopexit, label %.lr.ph

.lr.ph:                                           ; preds = %.lr.ph26.split, %agdelrec.exit
  %.022 = phi ptr [ %55, %agdelrec.exit ], [ %11, %.lr.ph26.split ]
  %12 = tail call ptr @agraphof(ptr noundef nonnull %.022) #11
  %13 = getelementptr inbounds nuw i8, ptr %.022, i64 16
  %14 = load ptr, ptr %13, align 8, !tbaa !3
  br label %15

15:                                               ; preds = %20, %.lr.ph
  %.021.i.i = phi ptr [ %14, %.lr.ph ], [ %22, %20 ]
  %.not.i.i = icmp eq ptr %.021.i.i, null
  br i1 %.not.i.i, label %agdelrec.exit, label %16

16:                                               ; preds = %15
  %17 = load ptr, ptr %.021.i.i, align 8, !tbaa !12
  %18 = tail call i32 @strcmp(ptr noundef nonnull readonly dereferenceable(1) %2, ptr noundef nonnull readonly dereferenceable(1) %17) #10
  %19 = icmp eq i32 %18, 0
  br i1 %19, label %.critedge.i.i, label %20

20:                                               ; preds = %16
  %21 = getelementptr inbounds nuw i8, ptr %.021.i.i, i64 8
  %22 = load ptr, ptr %21, align 8, !tbaa !15
  %23 = icmp eq ptr %22, %14
  br i1 %23, label %agdelrec.exit, label %15, !llvm.loop !16

.critedge.i.i:                                    ; preds = %16
  %24 = load i32, ptr %.022, align 8
  %25 = and i32 %24, 4
  %.not23.i.i = icmp eq i32 %25, 0
  %26 = icmp ne ptr %.021.i.i, %14
  %or.cond.i = select i1 %.not23.i.i, i1 %26, i1 false
  br i1 %or.cond.i, label %27, label %36

27:                                               ; preds = %.critedge.i.i
  store ptr %.021.i.i, ptr %13, align 8, !tbaa !3
  %28 = and i32 %24, 2
  %switch.not.i.i.i = icmp eq i32 %28, 0
  br i1 %switch.not.i.i.i, label %36, label %29

29:                                               ; preds = %27
  %30 = and i32 %24, 3
  %31 = icmp eq i32 %30, 3
  %.v.i.i.i = select i1 %31, i64 -64, i64 64
  %32 = getelementptr inbounds i8, ptr %.022, i64 %.v.i.i.i
  %33 = getelementptr inbounds nuw i8, ptr %32, i64 16
  store ptr %.021.i.i, ptr %33, align 8, !tbaa !3
  %34 = load i32, ptr %32, align 8
  %35 = and i32 %34, -5
  store i32 %35, ptr %32, align 8
  %.val.pre.i = load ptr, ptr %13, align 8, !tbaa !3
  br label %36

36:                                               ; preds = %29, %27, %.critedge.i.i
  %.val.i = phi ptr [ %.021.i.i, %27 ], [ %.val.pre.i, %29 ], [ %14, %.critedge.i.i ]
  br label %37

37:                                               ; preds = %37, %36
  %.0.i18.i = phi ptr [ %.val.i, %36 ], [ %39, %37 ]
  %38 = getelementptr inbounds nuw i8, ptr %.0.i18.i, i64 8
  %39 = load ptr, ptr %38, align 8, !tbaa !15
  %.not.i19.i = icmp eq ptr %39, %.021.i.i
  br i1 %.not.i19.i, label %listdelrec.exit.i, label %37, !llvm.loop !20

listdelrec.exit.i:                                ; preds = %37
  %40 = getelementptr inbounds nuw i8, ptr %.0.i18.i, i64 8
  %41 = getelementptr inbounds nuw i8, ptr %.021.i.i, i64 8
  %42 = load ptr, ptr %41, align 8, !tbaa !15
  store ptr %42, ptr %40, align 8, !tbaa !15
  %43 = load i32, ptr %.022, align 8
  %44 = and i32 %43, 3
  %switch.i = icmp eq i32 %44, 0
  br i1 %switch.i, label %45, label %50

45:                                               ; preds = %listdelrec.exit.i
  %46 = icmp eq ptr %.val.i, %.021.i.i
  br i1 %46, label %47, label %objdelrec.exit.i

47:                                               ; preds = %45
  %48 = icmp eq ptr %42, %.021.i.i
  %..i.i = select i1 %48, ptr null, ptr %42
  store ptr %..i.i, ptr %13, align 8, !tbaa !3
  %49 = and i32 %43, -8
  store i32 %49, ptr %.022, align 8
  br label %objdelrec.exit.i

50:                                               ; preds = %listdelrec.exit.i
  %51 = tail call ptr @agroot(ptr noundef %12) #11
  %52 = tail call i32 @agapply(ptr noundef %51, ptr noundef nonnull %.022, ptr noundef nonnull @objdelrec, ptr noundef nonnull %.021.i.i, i32 noundef 0) #11
  br label %objdelrec.exit.i

objdelrec.exit.i:                                 ; preds = %50, %47, %45
  %53 = load ptr, ptr %.021.i.i, align 8, !tbaa !12
  %54 = tail call i32 @agstrfree(ptr noundef %12, ptr noundef %53, i1 noundef zeroext false) #11
  tail call void @free(ptr noundef nonnull %.021.i.i) #11
  br label %agdelrec.exit

agdelrec.exit:                                    ; preds = %15, %20, %objdelrec.exit.i
  %55 = tail call ptr @agnxtout(ptr noundef %0, ptr noundef nonnull %.022) #11
  %.not18 = icmp eq ptr %55, null
  br i1 %.not18, label %.loopexit, label %.lr.ph, !llvm.loop !25

.loopexit:                                        ; preds = %agdelrec.exit, %.lr.ph26.split
  %56 = tail call ptr @agnxtnode(ptr noundef %0, ptr noundef nonnull %.01725) #11
  %.not = icmp eq ptr %56, null
  br i1 %.not, label %.loopexit19, label %.lr.ph26.split, !llvm.loop !24

.loopexit19:                                      ; preds = %.loopexit, %.lr.ph26.split.us, %6, %3, %4
  ret void
}